; Function Attrs: nounwind uwtable
define dso_local i64 @pg_relation_size(ptr noundef captures(none) %0) local_unnamed_addr #0 {
  %2 = getelementptr inbounds nuw i8, ptr %0, i64 32
  %3 = load i64, ptr %2, align 8
  %4 = trunc i64 %3 to i32
  %5 = getelementptr inbounds nuw i8, ptr %0, i64 48
  %6 = load i64, ptr %5, align 8
  %7 = inttoptr i64 %6 to ptr
  %8 = tail call ptr @pg_detoast_datum_packed(ptr noundef %7) #9
  %9 = tail call ptr @try_relation_open(i32 noundef %4, i32 noundef 1) #9
  %10 = icmp eq ptr %9, null
  br i1 %10, label %11, label %13

11:                                               ; preds = %1
  %12 = getelementptr inbounds nuw i8, ptr %0, i64 28
  store i8 1, ptr %12, align 4
  br label %19

13:                                               ; preds = %1
  %14 = getelementptr inbounds nuw i8, ptr %9, i64 28
  %15 = load i32, ptr %14, align 4
  %16 = tail call ptr @text_to_cstring(ptr noundef %8) #9
  %17 = tail call i32 @forkname_to_number(ptr noundef %16) #9
  %18 = tail call fastcc i64 @calculate_relation_size(ptr noundef nonnull %9, i32 noundef %15, i32 noundef %17)
  tail call void @relation_close(ptr noundef nonnull %9, i32 noundef 1) #9
  br label %19

19:                                               ; preds = %13, %11
  %.0 = phi i64 [ 0, %11 ], [ %18, %13 ]
  ret i64 %.0
}